; Function Attrs: nounwind uwtable
define internal range(i32 0, 2) i32 @check_stream_10c(ptr noundef readonly captures(none) %0) #0 {
  %2 = getelementptr inbounds nuw i8, ptr %0, i64 1144
  %3 = load i64, ptr %2, align 8, !tbaa !64
  %4 = tail call i32 @test_uint64_t_ge(ptr noundef nonnull @.str.2, i32 noundef 933, ptr noundef nonnull @.str.135, ptr noundef nonnull @.str.140, i64 noundef %3, i64 noundef 5) #8
  %.not = icmp eq i32 %4, 0
  br i1 %.not, label %15, label %5

5:                                                ; preds = %1
  %6 = load i64, ptr %2, align 8, !tbaa !64
  %7 = tail call i32 @test_uint64_t_le(ptr noundef nonnull @.str.2, i32 noundef 934, ptr noundef nonnull @.str.135, ptr noundef nonnull @.str.141, i64 noundef %6, i64 noundef 200) #8
  %.not5 = icmp eq i32 %7, 0
  br i1 %.not5, label %15, label %8

8:                                                ; preds = %5
  %9 = getelementptr inbounds nuw i8, ptr %0, i64 1152
  %10 = load ptr, ptr %9, align 8, !tbaa !64
  %11 = load i64, ptr %2, align 8, !tbaa !64
  %12 = load i64, ptr @stream_10a_off, align 8, !tbaa !102
  %13 = getelementptr inbounds nuw i8, ptr @stream_10a, i64 %12
  %14 = tail call i32 @test_mem_eq(ptr noundef nonnull @.str.2, i32 noundef 938, ptr noundef nonnull @.str.132, ptr noundef nonnull @.str.142, ptr noundef %10, i64 noundef %11, ptr noundef nonnull %13, i64 noundef %11) #8
  %.not6 = icmp ne i32 %14, 0
  %. = zext i1 %.not6 to i32
  br label %15

15:                                               ; preds = %8, %1, %5
  %.0 = phi i32 [ 0, %5 ], [ 0, %1 ], [ %., %8 ]
  ret i32 %.0
}